; Function Attrs: mustprogress uwtable
define hidden void @_ZNK11realclosure7manager15display_decimalERSoRKNS_3numEj(ptr noundef nonnull readonly align 8 captures(none) dereferenceable(8) %0, ptr noundef nonnull align 8 dereferenceable(8) %1, ptr noundef nonnull align 8 dereferenceable(8) %2, i32 noundef %3) local_unnamed_addr #5 align 2 personality ptr @__gxx_personality_v0 {
  %5 = alloca %"class.realclosure::save_interval_ctx", align 8
  call void @llvm.lifetime.start.p0(i64 8, ptr nonnull %5) #24
  %6 = load ptr, ptr %0, align 8, !tbaa !11
  store ptr %6, ptr %5, align 8, !tbaa !91
  %7 = load ptr, ptr %2, align 8, !tbaa !84
  %8 = icmp eq ptr %7, null
  br i1 %8, label %9, label %11

9:                                                ; preds = %4
  %10 = invoke noundef nonnull align 8 dereferenceable(8) ptr @_ZSt16__ostream_insertIcSt11char_traitsIcEERSt13basic_ostreamIT_T0_ES6_PKS3_l(ptr noundef nonnull align 8 dereferenceable(8) %1, ptr noundef nonnull @.str.47, i64 noundef 1)
          to label %_ZNK11realclosure7manager3imp15display_decimalERSoRKNS_3numEj.exit unwind label %25

11:                                               ; preds = %4
  %12 = getelementptr inbounds nuw i8, ptr %7, i64 4
  %13 = load i8, ptr %12, align 4, !tbaa !61, !range !105, !noundef !106
  %14 = trunc nuw i8 %13 to i1
  br i1 %14, label %15, label %19

15:                                               ; preds = %11
  %16 = getelementptr inbounds nuw i8, ptr %6, i64 24
  %17 = load ptr, ptr %16, align 8, !tbaa !50
  %18 = getelementptr inbounds nuw i8, ptr %7, i64 72
  invoke void @_ZN11mpq_managerILb0EE15display_decimalERSoRK3mpqjb(ptr noundef nonnull align 8 dereferenceable(728) %17, ptr noundef nonnull align 8 dereferenceable(8) %1, ptr noundef nonnull align 8 dereferenceable(32) %18, i32 noundef %3, i1 noundef zeroext false)
          to label %_ZNK11realclosure7manager3imp15display_decimalERSoRKNS_3numEj.exit unwind label %25

19:                                               ; preds = %11
  invoke void @_ZN11realclosure7manager3imp31display_non_rational_in_decimalERSoRKNS_3numEj(ptr noundef nonnull align 8 dereferenceable(1497) %6, ptr noundef nonnull align 8 dereferenceable(8) %1, ptr noundef nonnull align 8 dereferenceable(8) %2, i32 noundef %3)
          to label %_ZNK11realclosure7manager3imp15display_decimalERSoRKNS_3numEj.exit unwind label %25

_ZNK11realclosure7manager3imp15display_decimalERSoRKNS_3numEj.exit: ; preds = %9, %15, %19
  %20 = getelementptr inbounds nuw i8, ptr %6, i64 1392
  invoke void @_ZN11realclosure7manager3imp23restore_saved_intervalsINS_5valueEEEvR10ptr_vectorIT_E(ptr noundef nonnull align 8 dereferenceable(1497) %6, ptr noundef nonnull align 8 dereferenceable(8) %20)
          to label %.noexc.i unwind label %22

.noexc.i:                                         ; preds = %_ZNK11realclosure7manager3imp15display_decimalERSoRKNS_3numEj.exit
  %21 = getelementptr inbounds nuw i8, ptr %6, i64 1400
  invoke void @_ZN11realclosure7manager3imp23restore_saved_intervalsINS_9extensionEEEvR10ptr_vectorIT_E(ptr noundef nonnull align 8 dereferenceable(1497) %6, ptr noundef nonnull align 8 dereferenceable(8) %21)
          to label %_ZN11realclosure17save_interval_ctxD2Ev.exit unwind label %22

22:                                               ; preds = %.noexc.i, %_ZNK11realclosure7manager3imp15display_decimalERSoRKNS_3numEj.exit
  %23 = landingpad { ptr, i32 }
          catch ptr null
  %24 = extractvalue { ptr, i32 } %23, 0
  tail call void @__clang_call_terminate(ptr %24) #25
  unreachable

_ZN11realclosure17save_interval_ctxD2Ev.exit:     ; preds = %.noexc.i
  call void @llvm.lifetime.end.p0(i64 8, ptr nonnull %5) #24
  ret void

25:                                               ; preds = %19, %15, %9
  %26 = landingpad { ptr, i32 }
          cleanup
  call void @_ZN11realclosure17save_interval_ctxD2Ev(ptr noundef nonnull align 8 dereferenceable(8) %5) #24
  call void @llvm.lifetime.end.p0(i64 8, ptr nonnull %5) #24
  resume { ptr, i32 } %26
}